target datalayout = "e-m:e-p270:32:32-p271:32:32-p272:64:64-i64:64-i128:128-f80:128-n8:16:32:64-S128"
target triple = "x86_64-pc-linux-gnu"

%struct._php_basic_globals = type { ptr, %struct._zend_array, ptr, ptr, i8, ptr, [256 x i8], i64, %struct._zend_fcall_info, %struct._zend_fcall_info_cache, ptr, %struct._zval_struct, %struct._zval_struct, i64, i64, i64, i64, ptr, ptr, %struct._php_stream_statbuf, %struct._php_stream_statbuf, ptr, i32, %struct.anon.7, %struct.anon.8, %struct.url_adapt_state_ex_t, %struct._zend_array, %struct.url_adapt_state_ex_t, %struct._zend_array, ptr, i32, i64 }
%struct._zend_fcall_info = type { i64, %struct._zval_struct, ptr, ptr, ptr, i32, ptr }
%struct._zend_fcall_info_cache = type { ptr, ptr, ptr, ptr, ptr }
%struct._zval_struct = type { %union._zend_value, %union.anon.3, %union.anon.6 }
%union._zend_value = type { i64 }
%union.anon.3 = type { i32 }
%union.anon.6 = type { i32 }
%struct._php_stream_statbuf = type { %struct.stat }
%struct.stat = type { i64, i64, i64, i32, i32, i32, i32, i64, i64, i64, i64, %struct.timespec, %struct.timespec, %struct.timespec, [3 x i64] }
%struct.timespec = type { i64, i64 }
%struct.anon.7 = type { ptr, i32 }
%struct.anon.8 = type { ptr, i32 }
%struct.url_adapt_state_ex_t = type { %struct.smart_str, %struct.smart_str, %struct.smart_str, %struct.smart_str, %struct.smart_str, %struct.smart_str, %struct.smart_str, i32, ptr, i32, i32, %struct.smart_str, i32, i32, ptr }
%struct.smart_str = type { ptr, i64 }
%struct._zend_array = type { %struct._zend_refcounted_h, %union.anon.0, i32, %union.anon.1, i32, i32, i32, i32, i64, ptr }
%struct._zend_refcounted_h = type { i32, %union.anon }
%union.anon = type { i32 }
%union.anon.0 = type { i32 }
%union.anon.1 = type { ptr }
%struct.php_unserialize_data = type { ptr, ptr, ptr, ptr, ptr, i64, i64, %struct.var_entries }
%struct.var_entries = type { i64, ptr, [1018 x ptr] }

@basic_globals = external global %struct._php_basic_globals, align 8

; Function Attrs: nounwind uwtable
define ptr @php_var_unserialize_init() #0 {
  %1 = alloca ptr, align 8
  %2 = load i32, ptr getelementptr inbounds (%struct._php_basic_globals, ptr @basic_globals, i32 0, i32 22), align 8
  %3 = icmp ne i32 %2, 0
  br i1 %3, label %7, label %4

4:                                                ; preds = %0
  %5 = load i32, ptr getelementptr inbounds (%struct._php_basic_globals, ptr @basic_globals, i32 0, i32 24, i32 1), align 8
  %6 = icmp ne i32 %5, 0
  br i1 %6, label %37, label %7

7:                                                ; preds = %4, %0
  %8 = call noalias ptr @_emalloc_large(i64 noundef 8216) #8
  store ptr %8, ptr %1, align 8
  %9 = load ptr, ptr %1, align 8
  %10 = getelementptr inbounds %struct.php_unserialize_data, ptr %9, i32 0, i32 7
  %11 = load ptr, ptr %1, align 8
  %12 = getelementptr inbounds %struct.php_unserialize_data, ptr %11, i32 0, i32 0
  store ptr %10, ptr %12, align 8
  %13 = load ptr, ptr %1, align 8
  %14 = getelementptr inbounds %struct.php_unserialize_data, ptr %13, i32 0, i32 2
  store ptr null, ptr %14, align 8
  %15 = load ptr, ptr %1, align 8
  %16 = getelementptr inbounds %struct.php_unserialize_data, ptr %15, i32 0, i32 1
  store ptr null, ptr %16, align 8
  %17 = load ptr, ptr %1, align 8
  %18 = getelementptr inbounds %struct.php_unserialize_data, ptr %17, i32 0, i32 3
  store ptr null, ptr %18, align 8
  %19 = load ptr, ptr %1, align 8
  %20 = getelementptr inbounds %struct.php_unserialize_data, ptr %19, i32 0, i32 4
  store ptr null, ptr %20, align 8
  %21 = load ptr, ptr %1, align 8
  %22 = getelementptr inbounds %struct.php_unserialize_data, ptr %21, i32 0, i32 5
  store i64 0, ptr %22, align 8
  %23 = load i64, ptr getelementptr inbounds (%struct._php_basic_globals, ptr @basic_globals, i32 0, i32 31), align 8
  %24 = load ptr, ptr %1, align 8
  %25 = getelementptr inbounds %struct.php_unserialize_data, ptr %24, i32 0, i32 6
  store i64 %23, ptr %25, align 8
  %26 = load ptr, ptr %1, align 8
  %27 = getelementptr inbounds %struct.php_unserialize_data, ptr %26, i32 0, i32 7
  %28 = getelementptr inbounds %struct.var_entries, ptr %27, i32 0, i32 0
  store i64 0, ptr %28, align 8
  %29 = load ptr, ptr %1, align 8
  %30 = getelementptr inbounds %struct.php_unserialize_data, ptr %29, i32 0, i32 7
  %31 = getelementptr inbounds %struct.var_entries, ptr %30, i32 0, i32 1
  store ptr null, ptr %31, align 8
  %32 = load i32, ptr getelementptr inbounds (%struct._php_basic_globals, ptr @basic_globals, i32 0, i32 22), align 8
  %33 = icmp ne i32 %32, 0
  br i1 %33, label %36, label %34

34:                                               ; preds = %7
  %35 = load ptr, ptr %1, align 8
  store ptr %35, ptr getelementptr inbounds (%struct._php_basic_globals, ptr @basic_globals, i32 0, i32 24), align 8
  store i32 1, ptr getelementptr inbounds (%struct._php_basic_globals, ptr @basic_globals, i32 0, i32 24, i32 1), align 8
  br label %36

36:                                               ; preds = %34, %7
  br label %41

37:                                               ; preds = %4
  %38 = load ptr, ptr getelementptr inbounds (%struct._php_basic_globals, ptr @basic_globals, i32 0, i32 24), align 8
  store ptr %38, ptr %1, align 8
  %39 = load i32, ptr getelementptr inbounds (%struct._php_basic_globals, ptr @basic_globals, i32 0, i32 24, i32 1), align 8
  %40 = add i32 %39, 1
  store i32 %40, ptr getelementptr inbounds (%struct._php_basic_globals, ptr @basic_globals, i32 0, i32 24, i32 1), align 8
  br label %41

41:                                               ; preds = %37, %36
  %42 = load ptr, ptr %1, align 8
  ret ptr %42
}