; Function Attrs: nounwind uwtable
define ptr @php_var_unserialize_init() local_unnamed_addr #0 {
  %1 = load i32, ptr getelementptr inbounds (%struct._php_basic_globals, ptr @basic_globals, i64 0, i32 22), align 8
  %2 = icmp eq i32 %1, 0
  %3 = load i32, ptr getelementptr inbounds (%struct._php_basic_globals, ptr @basic_globals, i64 0, i32 24, i32 1), align 8
  %4 = icmp ne i32 %3, 0
  %or.cond = select i1 %2, i1 %4, i1 false
  br i1 %or.cond, label %13, label %5

5:                                                ; preds = %0
  %6 = tail call noalias dereferenceable_or_null(8216) ptr @_emalloc_large(i64 noundef 8216) #12
  %7 = getelementptr inbounds i8, ptr %6, i64 56
  store ptr %7, ptr %6, align 8
  %8 = getelementptr inbounds i8, ptr %6, i64 8
  tail call void @llvm.memset.p0.i64(ptr noundef nonnull align 8 dereferenceable(40) %8, i8 0, i64 40, i1 false)
  %9 = load i64, ptr getelementptr inbounds (%struct._php_basic_globals, ptr @basic_globals, i64 0, i32 31), align 8
  %10 = getelementptr inbounds i8, ptr %6, i64 48
  store i64 %9, ptr %10, align 8
  tail call void @llvm.memset.p0.i64(ptr noundef nonnull align 8 dereferenceable(16) %7, i8 0, i64 16, i1 false)
  %11 = load i32, ptr getelementptr inbounds (%struct._php_basic_globals, ptr @basic_globals, i64 0, i32 22), align 8
  %.not = icmp eq i32 %11, 0
  br i1 %.not, label %12, label %16

12:                                               ; preds = %5
  store ptr %6, ptr getelementptr inbounds (%struct._php_basic_globals, ptr @basic_globals, i64 0, i32 24), align 8
  br label %.sink.split

13:                                               ; preds = %0
  %14 = load ptr, ptr getelementptr inbounds (%struct._php_basic_globals, ptr @basic_globals, i64 0, i32 24), align 8
  %15 = add i32 %3, 1
  br label %.sink.split

.sink.split:                                      ; preds = %13, %12
  %.sink = phi i32 [ 1, %12 ], [ %15, %13 ]
  %.0.ph = phi ptr [ %6, %12 ], [ %14, %13 ]
  store i32 %.sink, ptr getelementptr inbounds (%struct._php_basic_globals, ptr @basic_globals, i64 0, i32 24, i32 1), align 8
  br label %16

16:                                               ; preds = %.sink.split, %5
  %.0 = phi ptr [ %6, %5 ], [ %.0.ph, %.sink.split ]
  ret ptr %.0
}